; ModuleID = 'source-C-CXX/13/1240.c'
source_filename = "source-C-CXX/13/1240.c"
target datalayout = "e-m:e-p270:32:32-p271:32:32-p272:64:64-i64:64-f80:128-n8:16:32:64-S128"
target triple = "x86_64-pc-linux-gnu"

%struct.student = type { i32, i32, i32 }

@.str = private unnamed_addr constant [3 x i8] c"%d\00", align 1
@.str.1 = private unnamed_addr constant [7 x i8] c"%d%d%d\00", align 1
@.str.2 = private unnamed_addr constant [7 x i8] c"%d %d\0A\00", align 1

; Function Attrs: nofree nounwind sspstrong uwtable
define dso_local void @main() local_unnamed_addr #0 {
  %1 = alloca [100 x %struct.student], align 16
  %2 = alloca i32, align 4
  %3 = alloca [100 x i32], align 16
  %4 = bitcast [100 x %struct.student]* %1 to i8*
  call void @llvm.lifetime.start.p0i8(i64 1200, i8* nonnull %4) #3
  %5 = bitcast i32* %2 to i8*
  call void @llvm.lifetime.start.p0i8(i64 4, i8* nonnull %5) #3
  %6 = bitcast [100 x i32]* %3 to i8*
  call void @llvm.lifetime.start.p0i8(i64 400, i8* nonnull %6) #3
  %7 = call i32 (i8*, ...) @__isoc99_scanf(i8* getelementptr inbounds ([3 x i8], [3 x i8]* @.str, i64 0, i64 0), i32* nonnull %2)
  %8 = load i32, i32* %2, align 4, !tbaa !5
  %9 = icmp sgt i32 %8, 0
  br i1 %9, label %10, label %64

10:                                               ; preds = %0, %10
  %11 = phi i64 [ %20, %10 ], [ 0, %0 ]
  %12 = getelementptr inbounds [100 x %struct.student], [100 x %struct.student]* %1, i64 0, i64 %11, i32 0
  %13 = getelementptr inbounds [100 x %struct.student], [100 x %struct.student]* %1, i64 0, i64 %11, i32 1
  %14 = getelementptr inbounds [100 x %struct.student], [100 x %struct.student]* %1, i64 0, i64 %11, i32 2
  %15 = call i32 (i8*, ...) @__isoc99_scanf(i8* getelementptr inbounds ([7 x i8], [7 x i8]* @.str.1, i64 0, i64 0), i32* nonnull %12, i32* nonnull %13, i32* nonnull %14)
  %16 = load i32, i32* %13, align 4, !tbaa !9
  %17 = load i32, i32* %14, align 4, !tbaa !11
  %18 = add nsw i32 %17, %16
  %19 = getelementptr inbounds [100 x i32], [100 x i32]* %3, i64 0, i64 %11
  store i32 %18, i32* %19, align 4, !tbaa !5
  %20 = add nuw nsw i64 %11, 1
  %21 = load i32, i32* %2, align 4, !tbaa !5
  %22 = sext i32 %21 to i64
  %23 = icmp slt i64 %20, %22
  br i1 %23, label %10, label %24, !llvm.loop !12

24:                                               ; preds = %10
  %25 = getelementptr inbounds [100 x i32], [100 x i32]* %3, i64 0, i64 0
  %26 = load i32, i32* %25, align 16, !tbaa !5
  %27 = getelementptr inbounds [100 x i32], [100 x i32]* %3, i64 0, i64 0
  %28 = icmp sgt i32 %21, 0
  br i1 %28, label %29, label %64

29:                                               ; preds = %24, %60
  %30 = phi i32 [ %54, %60 ], [ %21, %24 ]
  %31 = phi i32 [ %63, %60 ], [ %26, %24 ]
  %32 = phi i32 [ %55, %60 ], [ %26, %24 ]
  %33 = phi i32 [ %37, %60 ], [ undef, %24 ]
  %34 = phi i32 [ %56, %60 ], [ 0, %24 ]
  %35 = phi i32 [ %58, %60 ], [ 0, %24 ]
  %36 = icmp slt i32 %32, %31
  %37 = select i1 %36, i32 %35, i32 %33
  %38 = select i1 %36, i32 %31, i32 %32
  %39 = add nsw i32 %30, -1
  %40 = icmp eq i32 %35, %39
  br i1 %40, label %41, label %53

41:                                               ; preds = %29
  %42 = sext i32 %37 to i64
  %43 = getelementptr inbounds [100 x %struct.student], [100 x %struct.student]* %1, i64 0, i64 %42, i32 0
  %44 = load i32, i32* %43, align 4, !tbaa !14
  %45 = getelementptr inbounds [100 x i32], [100 x i32]* %3, i64 0, i64 %42
  %46 = load i32, i32* %45, align 4, !tbaa !5
  %47 = call i32 (i8*, ...) @printf(i8* nonnull dereferenceable(1) getelementptr inbounds ([7 x i8], [7 x i8]* @.str.2, i64 0, i64 0), i32 %44, i32 %46)
  store i32 0, i32* %45, align 4, !tbaa !5
  %48 = add nsw i32 %34, 1
  %49 = icmp eq i32 %48, 3
  br i1 %49, label %64, label %50

50:                                               ; preds = %41
  %51 = load i32, i32* %27, align 16, !tbaa !5
  %52 = load i32, i32* %2, align 4, !tbaa !5
  br label %53

53:                                               ; preds = %50, %29
  %54 = phi i32 [ %52, %50 ], [ %30, %29 ]
  %55 = phi i32 [ %51, %50 ], [ %38, %29 ]
  %56 = phi i32 [ %48, %50 ], [ %34, %29 ]
  %57 = phi i32 [ 0, %50 ], [ %35, %29 ]
  %58 = add nsw i32 %57, 1
  %59 = icmp slt i32 %58, %54
  br i1 %59, label %60, label %64, !llvm.loop !15

60:                                               ; preds = %53
  %61 = sext i32 %58 to i64
  %62 = getelementptr inbounds [100 x i32], [100 x i32]* %3, i64 0, i64 %61
  %63 = load i32, i32* %62, align 4, !tbaa !5
  br label %29

64:                                               ; preds = %53, %41, %0, %24
  call void @llvm.lifetime.end.p0i8(i64 400, i8* nonnull %6) #3
  call void @llvm.lifetime.end.p0i8(i64 4, i8* nonnull %5) #3
  call void @llvm.lifetime.end.p0i8(i64 1200, i8* nonnull %4) #3
  ret void
}

; Function Attrs: argmemonly mustprogress nofree nosync nounwind willreturn
declare void @llvm.lifetime.start.p0i8(i64 immarg, i8* nocapture) #1

; Function Attrs: nofree nounwind
declare noundef i32 @__isoc99_scanf(i8* nocapture noundef readonly, ...) local_unnamed_addr #2

; Function Attrs: nofree nounwind
declare noundef i32 @printf(i8* nocapture noundef readonly, ...) local_unnamed_addr #2

; Function Attrs: argmemonly mustprogress nofree nosync nounwind willreturn
declare void @llvm.lifetime.end.p0i8(i64 immarg, i8* nocapture) #1


!llvm.module.flags = !{!0, !1, !2, !3}
!llvm.ident = !{!4}

!0 = !{i32 1, !"wchar_size", i32 4}
!1 = !{i32 7, !"PIC Level", i32 2}
!2 = !{i32 7, !"PIE Level", i32 2}
!3 = !{i32 7, !"uwtable", i32 1}
!4 = !{!"clang version 13.0.0"}
!5 = !{!6, !6, i64 0}
!6 = !{!"int", !7, i64 0}
!7 = !{!"omnipotent char", !8, i64 0}
!8 = !{!"Simple C/C++ TBAA"}
!9 = !{!10, !6, i64 4}
!10 = !{!"student", !6, i64 0, !6, i64 4, !6, i64 8}
!11 = !{!10, !6, i64 8}
!12 = distinct !{!12, !13}
!13 = !{!"llvm.loop.mustprogress"}
!14 = !{!10, !6, i64 0}
!15 = distinct !{!15, !13}
